; Function Attrs: mustprogress uwtable
define void @_ZN11CMainWindow7addFileERK7QString(ptr noundef nonnull align 8 dereferenceable(280) %0, ptr noundef nonnull align 8 dereferenceable(24) %1) local_unnamed_addr #0 align 2 personality ptr @__gxx_personality_v0 {
  %3 = alloca %class.QString, align 8
  %4 = getelementptr inbounds nuw i8, ptr %1, i64 16
  %5 = load i64, ptr %4, align 8, !tbaa !36
  %6 = icmp eq i64 %5, 0
  br i1 %6, label %33, label %7

7:                                                ; preds = %2
  %8 = tail call noundef ptr @_ZN11CMainWindow12findMdiChildERK7QString(ptr noundef nonnull align 8 dereferenceable(280) %0, ptr noundef nonnull align 8 dereferenceable(24) %1)
  %.not = icmp eq ptr %8, null
  br i1 %.not, label %12, label %9

9:                                                ; preds = %7
  %10 = getelementptr inbounds nuw i8, ptr %0, i64 40
  %11 = load ptr, ptr %10, align 8, !tbaa !48
  tail call void @_ZN8QMdiArea18setActiveSubWindowEP13QMdiSubWindow(ptr noundef nonnull align 8 dereferenceable(40) %11, ptr noundef nonnull %8)
  br label %33

12:                                               ; preds = %7
  %13 = tail call noundef ptr @_ZN11CMainWindow14createMdiChildEv(ptr noundef nonnull align 8 dereferenceable(280) %0)
  %14 = tail call noundef zeroext i1 @_ZN8MdiChild8loadFileERK7QString(ptr noundef nonnull align 8 dereferenceable(153) %13, ptr noundef nonnull align 8 dereferenceable(24) %1)
  br i1 %14, label %15, label %31

15:                                               ; preds = %12
  %16 = tail call noundef ptr @_ZNK11QMainWindow9statusBarEv(ptr noundef nonnull align 8 dereferenceable(40) %0)
  call void @llvm.lifetime.start.p0(i64 24, ptr nonnull %3) #16
  call void @_ZNK11QMetaObject2trEPKcS1_i(ptr dead_on_unwind nonnull writable sret(%class.QString) align 8 %3, ptr noundef nonnull align 8 dereferenceable(56) @_ZN11CMainWindow16staticMetaObjectE, ptr noundef nonnull @.str.18, ptr noundef null, i32 noundef -1)
  invoke void @_ZN10QStatusBar11showMessageERK7QStringi(ptr noundef nonnull align 8 dereferenceable(40) %16, ptr noundef nonnull align 8 dereferenceable(24) %3, i32 noundef 2000)
          to label %17 unwind label %25

17:                                               ; preds = %15
  %18 = load ptr, ptr %3, align 8, !tbaa !11
  %.not.i.i.i = icmp eq ptr %18, null
  br i1 %.not.i.i.i, label %_ZN7QStringD2Ev.exit, label %_ZN17QArrayDataPointerIDsE5derefEv.exit.i.i

_ZN17QArrayDataPointerIDsE5derefEv.exit.i.i:      ; preds = %17
  %19 = atomicrmw sub ptr %18, i32 1 seq_cst, align 4
  %.not.i.i = icmp eq i32 %19, 1
  br i1 %.not.i.i, label %20, label %_ZN7QStringD2Ev.exit

20:                                               ; preds = %_ZN17QArrayDataPointerIDsE5derefEv.exit.i.i
  %21 = load ptr, ptr %3, align 8, !tbaa !11
  call void @_ZN10QArrayData10deallocateEPS_xx(ptr noundef %21, i64 noundef 2, i64 noundef 8) #16
  br label %_ZN7QStringD2Ev.exit

_ZN7QStringD2Ev.exit:                             ; preds = %17, %_ZN17QArrayDataPointerIDsE5derefEv.exit.i.i, %20
  call void @llvm.lifetime.end.p0(i64 24, ptr nonnull %3) #16
  call void @_ZN7QWidget4showEv(ptr noundef nonnull align 8 dereferenceable(40) %13)
  call void @_ZN11CMainWindow8setChildEv(ptr noundef nonnull align 8 dereferenceable(280) %0)
  %22 = getelementptr inbounds nuw i8, ptr %0, i64 232
  %23 = load ptr, ptr %22, align 8, !tbaa !68
  %24 = call noundef i32 @_ZN12CFrmSettings11runSettingsEP8MdiChild(ptr noundef nonnull align 8 dereferenceable(152) %23, ptr noundef nonnull %13)
  br label %33

25:                                               ; preds = %15
  %26 = landingpad { ptr, i32 }
          cleanup
  %27 = load ptr, ptr %3, align 8, !tbaa !11
  %.not.i.i.i11 = icmp eq ptr %27, null
  br i1 %.not.i.i.i11, label %_ZN7QStringD2Ev.exit14, label %_ZN17QArrayDataPointerIDsE5derefEv.exit.i.i12

_ZN17QArrayDataPointerIDsE5derefEv.exit.i.i12:    ; preds = %25
  %28 = atomicrmw sub ptr %27, i32 1 seq_cst, align 4
  %.not.i.i13 = icmp eq i32 %28, 1
  br i1 %.not.i.i13, label %29, label %_ZN7QStringD2Ev.exit14

29:                                               ; preds = %_ZN17QArrayDataPointerIDsE5derefEv.exit.i.i12
  %30 = load ptr, ptr %3, align 8, !tbaa !11
  call void @_ZN10QArrayData10deallocateEPS_xx(ptr noundef %30, i64 noundef 2, i64 noundef 8) #16
  br label %_ZN7QStringD2Ev.exit14

_ZN7QStringD2Ev.exit14:                           ; preds = %25, %_ZN17QArrayDataPointerIDsE5derefEv.exit.i.i12, %29
  call void @llvm.lifetime.end.p0(i64 24, ptr nonnull %3) #16
  resume { ptr, i32 } %26

31:                                               ; preds = %12
  %32 = tail call noundef zeroext i1 @_ZN7QWidget5closeEv(ptr noundef nonnull align 8 dereferenceable(40) %13)
  br label %33

33:                                               ; preds = %9, %31, %_ZN7QStringD2Ev.exit, %2
  ret void
}